ccopy_reg
_reconstructor
p1
(cicarus.results.readwrite
ResultSet
p2
c__builtin__
object
p3
NtRp4
(dp5
S'attr'
p6
(dp7
sS'_results'
p8
ccollections
deque
p9
((lp10
(cicarus.util
Tree
p11
(tRp12
S'computation_placement'
p13
g11
(tRp14
S'computation_budget'
p15
F50
sS'n_services'
p16
I100
sS'name'
p17
S'CENTRALITY'
p18
ssS'workload'
p19
g11
(tRp20
S'n_contents'
p21
I100
sg17
S'STATIONARY'
p22
sS'n_warmup'
p23
I100
sS'rate'
p24
F500
sS'n_measured'
p25
F5000
sS'alpha'
p26
F0.001
sg16
I100
sS'seed'
p27
I0
ssS'cache_policy'
p28
g11
(tRp29
g17
S'LRU'
p30
ssS'strategy'
p31
g11
(tRp32
S'replacement_interval'
p33
I10
sg17
S'LEAST_CONGESTED'
p34
ssS'content_placement'
p35
g11
(tRp36
g17
S'REPLICATED'
p37
ssS'cache_placement'
p38
g11
(tRp39
S'network_cache'
p40
F0.050000000000000003
sg17
S'UNIFORM'
p41
ssS'desc'
p42
S'Alpha: 0.001, strategy: LEAST_CONGESTED, network cache: 0.05'
p43
sS'warmup_strategy'
p44
g11
(tRp45
g17
g34
ssS'topology'
p46
g11
(tRp47
S'h'
I3
sS'k'
I2
sg17
S'TREE'
p48
ssg11
(tRp49
S'LATENCY'
p50
g11
(tRp51
g50
F0.83843075815892221
sS'PER_SERVICE_REQUESTS'
p52
g11
(tRp53
sS'NUM_OF_VMS'
p54
(lp55
I9
aI10
aI10
aI5
aI5
aI5
aI5
aI1
aI1
aI1
aI1
aI1
aI1
aI1
aI1
asS'IDLE_TIMES'
p56
(lp57
F0.76179238645658609
aF1.2558874849636386
aF1.4792660430702296
aF1.2142759753338823
aF1.651172830983711
aF2.7368249276889829
aF3.0322582171530064
aF1.4801179952348991
aF2.3628502642188711
aF1.9318564860850751
aF3.0849568516852779
aF2.6530360739744321
aF3.1191354804358529
aF4.4423767754111392
aF5.293799086632939
assS'OVERHEAD'
p58
g11
(tRp59
S'MEAN'
p60
F18.127199999999998
sstp61
atRp62
sb.