ccopy_reg
_reconstructor
p1
(cicarus.results.readwrite
ResultSet
p2
c__builtin__
object
p3
NtRp4
(dp5
S'attr'
p6
(dp7
sS'_results'
p8
ccollections
deque
p9
((lp10
(cicarus.util
Tree
p11
(tRp12
S'computation_placement'
p13
g11
(tRp14
S'computation_budget'
p15
I500
sS'n_services'
p16
I100
sS'name'
p17
S'CENTRALITY'
p18
ssS'workload'
p19
g11
(tRp20
S'n_contents'
p21
I100
sg17
S'STATIONARY'
p22
sS'n_warmup'
p23
I0
sS'rate'
p24
F100
sS'n_measured'
p25
I1000
sS'alpha'
p26
F0.69999999999999996
sg16
I100
sS'seed'
p27
I0
ssS'cache_policy'
p28
g11
(tRp29
g17
S'LRU'
p30
ssS'strategy'
p31
g11
(tRp32
S'replacement_interval'
p33
I10
sg17
S'LEAST_CONGESTED'
p34
ssS'content_placement'
p35
g11
(tRp36
g17
S'UNIFORM'
p37
ssS'cache_placement'
p38
g11
(tRp39
S'network_cache'
p40
F0.050000000000000003
sg17
g37
ssS'desc'
p41
S'Alpha: 0.7, strategy: LEAST_CONGESTED, network cache: 0.05'
p42
sS'warmup_strategy'
p43
g11
(tRp44
g17
g34
ssS'topology'
p45
g11
(tRp46
S'h'
I3
sS'k'
I2
sg17
S'TREE'
p47
ssg11
(tRp48
S'LATENCY'
p49
g11
(tRp50
g49
F5.1638734736596099
sS'PER_SERVICE_REQUESTS'
p51
g11
(tRp52
sS'NUM_OF_VMS'
p53
(lp54
I89
aI96
aI96
aI50
aI50
aI50
aI50
aI14
aI14
aI14
aI14
aI14
aI14
aI14
aI14
asS'IDLE_TIMES'
p55
(lp56
F19.815013327323378
aF20.439177110693652
aF20.439177110693652
aF20.439177110693642
aF20.439177110693642
aF20.439177110693642
aF20.439177110693642
aF20.439177110693628
aF20.439177110693628
aF20.439177110693628
aF20.439177110693628
aF20.439177110693628
aF20.439177110693628
aF20.439177110693628
aF20.439177110693628
asstp57
atRp58
sb.